
Sessaion25_LCD.elf:     file format elf32-avr

Sections:
Idx Name          Size      VMA       LMA       File off  Algn
  0 .text         0000027c  00000000  00000000  00000094  2**1
                  CONTENTS, ALLOC, LOAD, READONLY, CODE
  1 .data         00000014  00800060  0000027c  00000310  2**0
                  CONTENTS, ALLOC, LOAD, DATA
  2 .bss          0000000a  00800074  00800074  00000324  2**0
                  ALLOC

Disassembly of section .text:

00000000 <__vectors>:
   0:	0c 94 2a 00 	jmp	0x54	; 0x54 <__ctors_end>
   4:	0c 94 47 00 	jmp	0x8e	; 0x8e <__bad_interrupt>
   8:	0c 94 47 00 	jmp	0x8e	; 0x8e <__bad_interrupt>
   c:	0c 94 47 00 	jmp	0x8e	; 0x8e <__bad_interrupt>
  10:	0c 94 47 00 	jmp	0x8e	; 0x8e <__bad_interrupt>
  14:	0c 94 47 00 	jmp	0x8e	; 0x8e <__bad_interrupt>
  18:	0c 94 47 00 	jmp	0x8e	; 0x8e <__bad_interrupt>
  1c:	0c 94 47 00 	jmp	0x8e	; 0x8e <__bad_interrupt>
  20:	0c 94 47 00 	jmp	0x8e	; 0x8e <__bad_interrupt>
  24:	0c 94 47 00 	jmp	0x8e	; 0x8e <__bad_interrupt>
  28:	0c 94 47 00 	jmp	0x8e	; 0x8e <__bad_interrupt>
  2c:	0c 94 47 00 	jmp	0x8e	; 0x8e <__bad_interrupt>
  30:	0c 94 47 00 	jmp	0x8e	; 0x8e <__bad_interrupt>
  34:	0c 94 47 00 	jmp	0x8e	; 0x8e <__bad_interrupt>
  38:	0c 94 47 00 	jmp	0x8e	; 0x8e <__bad_interrupt>
  3c:	0c 94 47 00 	jmp	0x8e	; 0x8e <__bad_interrupt>
  40:	0c 94 47 00 	jmp	0x8e	; 0x8e <__bad_interrupt>
  44:	0c 94 47 00 	jmp	0x8e	; 0x8e <__bad_interrupt>
  48:	0c 94 47 00 	jmp	0x8e	; 0x8e <__bad_interrupt>
  4c:	0c 94 47 00 	jmp	0x8e	; 0x8e <__bad_interrupt>
  50:	0c 94 47 00 	jmp	0x8e	; 0x8e <__bad_interrupt>

00000054 <__ctors_end>:
  54:	11 24       	eor	r1, r1
  56:	1f be       	out	0x3f, r1	; 63
  58:	cf e5       	ldi	r28, 0x5F	; 95
  5a:	d8 e0       	ldi	r29, 0x08	; 8
  5c:	de bf       	out	0x3e, r29	; 62
  5e:	cd bf       	out	0x3d, r28	; 61

00000060 <__do_copy_data>:
  60:	10 e0       	ldi	r17, 0x00	; 0
  62:	a0 e6       	ldi	r26, 0x60	; 96
  64:	b0 e0       	ldi	r27, 0x00	; 0
  66:	ec e7       	ldi	r30, 0x7C	; 124
  68:	f2 e0       	ldi	r31, 0x02	; 2
  6a:	02 c0       	rjmp	.+4      	; 0x70 <.do_copy_data_start>

0000006c <.do_copy_data_loop>:
  6c:	05 90       	lpm	r0, Z+
  6e:	0d 92       	st	X+, r0

00000070 <.do_copy_data_start>:
  70:	a4 37       	cpi	r26, 0x74	; 116
  72:	b1 07       	cpc	r27, r17
  74:	d9 f7       	brne	.-10     	; 0x6c <.do_copy_data_loop>

00000076 <__do_clear_bss>:
  76:	10 e0       	ldi	r17, 0x00	; 0
  78:	a4 e7       	ldi	r26, 0x74	; 116
  7a:	b0 e0       	ldi	r27, 0x00	; 0
  7c:	01 c0       	rjmp	.+2      	; 0x80 <.do_clear_bss_start>

0000007e <.do_clear_bss_loop>:
  7e:	1d 92       	st	X+, r1

00000080 <.do_clear_bss_start>:
  80:	ae 37       	cpi	r26, 0x7E	; 126
  82:	b1 07       	cpc	r27, r17
  84:	e1 f7       	brne	.-8      	; 0x7e <.do_clear_bss_loop>
  86:	0e 94 ca 00 	call	0x194	; 0x194 <main>
  8a:	0c 94 3c 01 	jmp	0x278	; 0x278 <_exit>

0000008e <__bad_interrupt>:
  8e:	0c 94 00 00 	jmp	0	; 0x0 <__vectors>

00000092 <LCD_Send_Command>:
  92:	ae 98       	cbi	0x15, 6	; 21
  94:	20 ed       	ldi	r18, 0xD0	; 208
  96:	37 e0       	ldi	r19, 0x07	; 7
  98:	f9 01       	movw	r30, r18
  9a:	31 97       	sbiw	r30, 0x01	; 1
  9c:	f1 f7       	brne	.-4      	; 0x9a <LCD_Send_Command+0x8>
  9e:	af 9a       	sbi	0x15, 7	; 21
  a0:	f9 01       	movw	r30, r18
  a2:	31 97       	sbiw	r30, 0x01	; 1
  a4:	f1 f7       	brne	.-4      	; 0xa2 <LCD_Send_Command+0x10>
  a6:	88 bb       	out	0x18, r24	; 24
  a8:	c9 01       	movw	r24, r18
  aa:	01 97       	sbiw	r24, 0x01	; 1
  ac:	f1 f7       	brne	.-4      	; 0xaa <LCD_Send_Command+0x18>
  ae:	af 98       	cbi	0x15, 7	; 21
  b0:	c9 01       	movw	r24, r18
  b2:	01 97       	sbiw	r24, 0x01	; 1
  b4:	f1 f7       	brne	.-4      	; 0xb2 <LCD_Send_Command+0x20>
  b6:	08 95       	ret

000000b8 <LCD_Init>:
  b8:	a6 9a       	sbi	0x14, 6	; 20
  ba:	a7 9a       	sbi	0x14, 7	; 20
  bc:	8f ef       	ldi	r24, 0xFF	; 255
  be:	87 bb       	out	0x17, r24	; 23
  c0:	82 e0       	ldi	r24, 0x02	; 2
  c2:	0e 94 49 00 	call	0x92	; 0x92 <LCD_Send_Command>
  c6:	88 e3       	ldi	r24, 0x38	; 56
  c8:	0e 94 49 00 	call	0x92	; 0x92 <LCD_Send_Command>
  cc:	81 e0       	ldi	r24, 0x01	; 1
  ce:	0e 94 49 00 	call	0x92	; 0x92 <LCD_Send_Command>
  d2:	8e e0       	ldi	r24, 0x0E	; 14
  d4:	0e 94 49 00 	call	0x92	; 0x92 <LCD_Send_Command>
  d8:	08 95       	ret

000000da <LCD_Send_Character>:
  da:	ae 9a       	sbi	0x15, 6	; 21
  dc:	20 ed       	ldi	r18, 0xD0	; 208
  de:	37 e0       	ldi	r19, 0x07	; 7
  e0:	f9 01       	movw	r30, r18
  e2:	31 97       	sbiw	r30, 0x01	; 1
  e4:	f1 f7       	brne	.-4      	; 0xe2 <LCD_Send_Character+0x8>
  e6:	af 9a       	sbi	0x15, 7	; 21
  e8:	f9 01       	movw	r30, r18
  ea:	31 97       	sbiw	r30, 0x01	; 1
  ec:	f1 f7       	brne	.-4      	; 0xea <LCD_Send_Character+0x10>
  ee:	88 bb       	out	0x18, r24	; 24
  f0:	c9 01       	movw	r24, r18
  f2:	01 97       	sbiw	r24, 0x01	; 1
  f4:	f1 f7       	brne	.-4      	; 0xf2 <LCD_Send_Character+0x18>
  f6:	af 98       	cbi	0x15, 7	; 21
  f8:	c9 01       	movw	r24, r18
  fa:	01 97       	sbiw	r24, 0x01	; 1
  fc:	f1 f7       	brne	.-4      	; 0xfa <LCD_Send_Character+0x20>
  fe:	08 95       	ret

00000100 <LCD_Send_String>:
 100:	cf 93       	push	r28
 102:	df 93       	push	r29
 104:	ec 01       	movw	r28, r24
 106:	02 c0       	rjmp	.+4      	; 0x10c <LCD_Send_String+0xc>
 108:	0e 94 6d 00 	call	0xda	; 0xda <LCD_Send_Character>
 10c:	89 91       	ld	r24, Y+
 10e:	88 23       	and	r24, r24
 110:	d9 f7       	brne	.-10     	; 0x108 <LCD_Send_String+0x8>
 112:	df 91       	pop	r29
 114:	cf 91       	pop	r28
 116:	08 95       	ret

00000118 <LCD_Clear_Display>:
 118:	81 e0       	ldi	r24, 0x01	; 1
 11a:	0e 94 49 00 	call	0x92	; 0x92 <LCD_Send_Command>
 11e:	08 95       	ret

00000120 <LCD_Go_To_Row_Column>:
 120:	88 23       	and	r24, r24
 122:	29 f0       	breq	.+10     	; 0x12e <LCD_Go_To_Row_Column+0xe>
 124:	81 30       	cpi	r24, 0x01	; 1
 126:	11 f0       	breq	.+4      	; 0x12c <LCD_Go_To_Row_Column+0xc>
 128:	60 e0       	ldi	r22, 0x00	; 0
 12a:	01 c0       	rjmp	.+2      	; 0x12e <LCD_Go_To_Row_Column+0xe>
 12c:	60 5c       	subi	r22, 0xC0	; 192
 12e:	86 2f       	mov	r24, r22
 130:	80 68       	ori	r24, 0x80	; 128
 132:	0e 94 49 00 	call	0x92	; 0x92 <LCD_Send_Command>
 136:	08 95       	ret

00000138 <LCD_Send_String_Row_Column>:
 138:	0f 93       	push	r16
 13a:	1f 93       	push	r17
 13c:	8a 01       	movw	r16, r20
 13e:	0e 94 90 00 	call	0x120	; 0x120 <LCD_Go_To_Row_Column>
 142:	c8 01       	movw	r24, r16
 144:	0e 94 80 00 	call	0x100	; 0x100 <LCD_Send_String>
 148:	1f 91       	pop	r17
 14a:	0f 91       	pop	r16
 14c:	08 95       	ret

0000014e <LCD_Set_Custom_Char>:
 14e:	0f 93       	push	r16
 150:	1f 93       	push	r17
 152:	cf 93       	push	r28
 154:	df 93       	push	r29
 156:	8b 01       	movw	r16, r22
 158:	88 30       	cpi	r24, 0x08	; 8
 15a:	90 f4       	brcc	.+36     	; 0x180 <LCD_Set_Custom_Char+0x32>
 15c:	88 0f       	add	r24, r24
 15e:	88 0f       	add	r24, r24
 160:	88 0f       	add	r24, r24
 162:	80 5c       	subi	r24, 0xC0	; 192
 164:	0e 94 49 00 	call	0x92	; 0x92 <LCD_Send_Command>
 168:	c0 e0       	ldi	r28, 0x00	; 0
 16a:	d0 e0       	ldi	r29, 0x00	; 0
 16c:	f8 01       	movw	r30, r16
 16e:	ec 0f       	add	r30, r28
 170:	fd 1f       	adc	r31, r29
 172:	80 81       	ld	r24, Z
 174:	0e 94 6d 00 	call	0xda	; 0xda <LCD_Send_Character>
 178:	21 96       	adiw	r28, 0x01	; 1
 17a:	c8 30       	cpi	r28, 0x08	; 8
 17c:	d1 05       	cpc	r29, r1
 17e:	b1 f7       	brne	.-20     	; 0x16c <LCD_Set_Custom_Char+0x1e>
 180:	df 91       	pop	r29
 182:	cf 91       	pop	r28
 184:	1f 91       	pop	r17
 186:	0f 91       	pop	r16
 188:	08 95       	ret

0000018a <LCD_Int_To_String>:
 18a:	4a e0       	ldi	r20, 0x0A	; 10
 18c:	50 e0       	ldi	r21, 0x00	; 0
 18e:	0e 94 f7 00 	call	0x1ee	; 0x1ee <itoa>
 192:	08 95       	ret

00000194 <main>:
 194:	0f 93       	push	r16
 196:	1f 93       	push	r17
 198:	df 93       	push	r29
 19a:	cf 93       	push	r28
 19c:	0f 92       	push	r0
 19e:	cd b7       	in	r28, 0x3d	; 61
 1a0:	de b7       	in	r29, 0x3e	; 62
 1a2:	19 82       	std	Y+1, r1	; 0x01
 1a4:	0e 94 5c 00 	call	0xb8	; 0xb8 <LCD_Init>
 1a8:	0e 94 8c 00 	call	0x118	; 0x118 <LCD_Clear_Display>
 1ac:	80 e0       	ldi	r24, 0x00	; 0
 1ae:	60 e0       	ldi	r22, 0x00	; 0
 1b0:	40 e6       	ldi	r20, 0x60	; 96
 1b2:	50 e0       	ldi	r21, 0x00	; 0
 1b4:	0e 94 9c 00 	call	0x138	; 0x138 <LCD_Send_String_Row_Column>
 1b8:	08 ec       	ldi	r16, 0xC8	; 200
 1ba:	10 e0       	ldi	r17, 0x00	; 0
 1bc:	89 81       	ldd	r24, Y+1	; 0x01
 1be:	8f 5f       	subi	r24, 0xFF	; 255
 1c0:	89 83       	std	Y+1, r24	; 0x01
 1c2:	81 e0       	ldi	r24, 0x01	; 1
 1c4:	60 e0       	ldi	r22, 0x00	; 0
 1c6:	0e 94 90 00 	call	0x120	; 0x120 <LCD_Go_To_Row_Column>
 1ca:	89 81       	ldd	r24, Y+1	; 0x01
 1cc:	90 e0       	ldi	r25, 0x00	; 0
 1ce:	64 e7       	ldi	r22, 0x74	; 116
 1d0:	70 e0       	ldi	r23, 0x00	; 0
 1d2:	0e 94 c5 00 	call	0x18a	; 0x18a <LCD_Int_To_String>
 1d6:	84 e7       	ldi	r24, 0x74	; 116
 1d8:	90 e0       	ldi	r25, 0x00	; 0
 1da:	0e 94 80 00 	call	0x100	; 0x100 <LCD_Send_String>
 1de:	80 e1       	ldi	r24, 0x10	; 16
 1e0:	97 e2       	ldi	r25, 0x27	; 39
 1e2:	f8 01       	movw	r30, r16
 1e4:	31 97       	sbiw	r30, 0x01	; 1
 1e6:	f1 f7       	brne	.-4      	; 0x1e4 <main+0x50>
 1e8:	01 97       	sbiw	r24, 0x01	; 1
 1ea:	d9 f7       	brne	.-10     	; 0x1e2 <main+0x4e>
 1ec:	e7 cf       	rjmp	.-50     	; 0x1bc <main+0x28>

000001ee <itoa>:
 1ee:	fb 01       	movw	r30, r22
 1f0:	9f 01       	movw	r18, r30
 1f2:	e8 94       	clt
 1f4:	42 30       	cpi	r20, 0x02	; 2
 1f6:	c4 f0       	brlt	.+48     	; 0x228 <itoa+0x3a>
 1f8:	45 32       	cpi	r20, 0x25	; 37
 1fa:	b4 f4       	brge	.+44     	; 0x228 <itoa+0x3a>
 1fc:	4a 30       	cpi	r20, 0x0A	; 10
 1fe:	29 f4       	brne	.+10     	; 0x20a <itoa+0x1c>
 200:	97 fb       	bst	r25, 7
 202:	1e f4       	brtc	.+6      	; 0x20a <itoa+0x1c>
 204:	90 95       	com	r25
 206:	81 95       	neg	r24
 208:	9f 4f       	sbci	r25, 0xFF	; 255
 20a:	64 2f       	mov	r22, r20
 20c:	77 27       	eor	r23, r23
 20e:	0e 94 28 01 	call	0x250	; 0x250 <__udivmodhi4>
 212:	80 5d       	subi	r24, 0xD0	; 208
 214:	8a 33       	cpi	r24, 0x3A	; 58
 216:	0c f0       	brlt	.+2      	; 0x21a <itoa+0x2c>
 218:	89 5d       	subi	r24, 0xD9	; 217
 21a:	81 93       	st	Z+, r24
 21c:	cb 01       	movw	r24, r22
 21e:	00 97       	sbiw	r24, 0x00	; 0
 220:	a1 f7       	brne	.-24     	; 0x20a <itoa+0x1c>
 222:	16 f4       	brtc	.+4      	; 0x228 <itoa+0x3a>
 224:	5d e2       	ldi	r21, 0x2D	; 45
 226:	51 93       	st	Z+, r21
 228:	10 82       	st	Z, r1
 22a:	c9 01       	movw	r24, r18
 22c:	0c 94 18 01 	jmp	0x230	; 0x230 <strrev>

00000230 <strrev>:
 230:	dc 01       	movw	r26, r24
 232:	fc 01       	movw	r30, r24
 234:	67 2f       	mov	r22, r23
 236:	71 91       	ld	r23, Z+
 238:	77 23       	and	r23, r23
 23a:	e1 f7       	brne	.-8      	; 0x234 <strrev+0x4>
 23c:	32 97       	sbiw	r30, 0x02	; 2
 23e:	04 c0       	rjmp	.+8      	; 0x248 <strrev+0x18>
 240:	7c 91       	ld	r23, X
 242:	6d 93       	st	X+, r22
 244:	70 83       	st	Z, r23
 246:	62 91       	ld	r22, -Z
 248:	ae 17       	cp	r26, r30
 24a:	bf 07       	cpc	r27, r31
 24c:	c8 f3       	brcs	.-14     	; 0x240 <strrev+0x10>
 24e:	08 95       	ret

00000250 <__udivmodhi4>:
 250:	aa 1b       	sub	r26, r26
 252:	bb 1b       	sub	r27, r27
 254:	51 e1       	ldi	r21, 0x11	; 17
 256:	07 c0       	rjmp	.+14     	; 0x266 <__udivmodhi4_ep>

00000258 <__udivmodhi4_loop>:
 258:	aa 1f       	adc	r26, r26
 25a:	bb 1f       	adc	r27, r27
 25c:	a6 17       	cp	r26, r22
 25e:	b7 07       	cpc	r27, r23
 260:	10 f0       	brcs	.+4      	; 0x266 <__udivmodhi4_ep>
 262:	a6 1b       	sub	r26, r22
 264:	b7 0b       	sbc	r27, r23

00000266 <__udivmodhi4_ep>:
 266:	88 1f       	adc	r24, r24
 268:	99 1f       	adc	r25, r25
 26a:	5a 95       	dec	r21
 26c:	a9 f7       	brne	.-22     	; 0x258 <__udivmodhi4_loop>
 26e:	80 95       	com	r24
 270:	90 95       	com	r25
 272:	bc 01       	movw	r22, r24
 274:	cd 01       	movw	r24, r26
 276:	08 95       	ret

00000278 <_exit>:
 278:	f8 94       	cli

0000027a <__stop_program>:
 27a:	ff cf       	rjmp	.-2      	; 0x27a <__stop_program>
